; ModuleID = '57/1449.c'
source_filename = "57/1449.c"
target datalayout = "e-m:e-p270:32:32-p271:32:32-p272:64:64-i64:64-f80:128-n8:16:32:64-S128"
target triple = "x86_64-pc-linux-gnu"

@.str = private unnamed_addr constant [3 x i8] c"%d\00", align 1
@.str.1 = private unnamed_addr constant [3 x i8] c"%c\00", align 1
@.str.2 = private unnamed_addr constant [4 x i8] c"%c\0A\00", align 1

; Function Attrs: noinline nounwind uwtable
define dso_local i32 @main(i32 %0, i8** %1) #0 {
  %3 = alloca i32, align 4
  %4 = alloca i32, align 4
  %5 = alloca i8**, align 8
  %6 = alloca i32, align 4
  %7 = alloca i32, align 4
  %8 = alloca [100 x i8], align 16
  %9 = alloca i8*, align 8
  %10 = alloca i32, align 4
  %11 = alloca i32, align 4
  %12 = alloca i32, align 4
  %13 = alloca i32, align 4
  %14 = alloca i32, align 4
  store i32 0, i32* %3, align 4
  store i32 %0, i32* %4, align 4
  store i8** %1, i8*** %5, align 8
  %15 = call i32 (i8*, ...) @__isoc99_scanf(i8* getelementptr inbounds ([3 x i8], [3 x i8]* @.str, i64 0, i64 0), i32* %6)
  store i32 0, i32* %7, align 4
  br label %16

16:                                               ; preds = %183, %2
  %17 = load i32, i32* %7, align 4
  %18 = load i32, i32* %6, align 4
  %19 = add nsw i32 %18, 1
  %20 = icmp slt i32 %17, %19
  br i1 %20, label %21, label %186

21:                                               ; preds = %16
  %22 = getelementptr inbounds [100 x i8], [100 x i8]* %8, i64 0, i64 0
  %23 = call i32 (i8*, ...) bitcast (i32 (...)* @gets to i32 (i8*, ...)*)(i8* %22)
  store i32 0, i32* %10, align 4
  %24 = getelementptr inbounds [100 x i8], [100 x i8]* %8, i64 0, i64 0
  store i8* %24, i8** %9, align 8
  br label %25

25:                                               ; preds = %33, %21
  %26 = load i8*, i8** %9, align 8
  %27 = load i8, i8* %26, align 1
  %28 = sext i8 %27 to i32
  %29 = icmp ne i32 %28, 0
  br i1 %29, label %30, label %36

30:                                               ; preds = %25
  %31 = load i32, i32* %10, align 4
  %32 = add nsw i32 %31, 1
  store i32 %32, i32* %10, align 4
  br label %33

33:                                               ; preds = %30
  %34 = load i8*, i8** %9, align 8
  %35 = getelementptr inbounds i8, i8* %34, i32 1
  store i8* %35, i8** %9, align 8
  br label %25

36:                                               ; preds = %25
  %37 = load i32, i32* %10, align 4
  %38 = sub nsw i32 %37, 2
  %39 = sext i32 %38 to i64
  %40 = getelementptr inbounds [100 x i8], [100 x i8]* %8, i64 0, i64 %39
  %41 = load i8, i8* %40, align 1
  %42 = sext i8 %41 to i32
  %43 = icmp eq i32 %42, 101
  br i1 %43, label %44, label %76

44:                                               ; preds = %36
  %45 = load i32, i32* %10, align 4
  %46 = sub nsw i32 %45, 1
  %47 = sext i32 %46 to i64
  %48 = getelementptr inbounds [100 x i8], [100 x i8]* %8, i64 0, i64 %47
  %49 = load i8, i8* %48, align 1
  %50 = sext i8 %49 to i32
  %51 = icmp eq i32 %50, 114
  br i1 %51, label %52, label %76

52:                                               ; preds = %44
  store i32 0, i32* %11, align 4
  br label %53

53:                                               ; preds = %65, %52
  %54 = load i32, i32* %11, align 4
  %55 = load i32, i32* %10, align 4
  %56 = sub nsw i32 %55, 3
  %57 = icmp slt i32 %54, %56
  br i1 %57, label %58, label %68

58:                                               ; preds = %53
  %59 = load i32, i32* %11, align 4
  %60 = sext i32 %59 to i64
  %61 = getelementptr inbounds [100 x i8], [100 x i8]* %8, i64 0, i64 %60
  %62 = load i8, i8* %61, align 1
  %63 = sext i8 %62 to i32
  %64 = call i32 (i8*, ...) @printf(i8* getelementptr inbounds ([3 x i8], [3 x i8]* @.str.1, i64 0, i64 0), i32 %63)
  br label %65

65:                                               ; preds = %58
  %66 = load i32, i32* %11, align 4
  %67 = add nsw i32 %66, 1
  store i32 %67, i32* %11, align 4
  br label %53

68:                                               ; preds = %53
  %69 = load i32, i32* %10, align 4
  %70 = sub nsw i32 %69, 3
  %71 = sext i32 %70 to i64
  %72 = getelementptr inbounds [100 x i8], [100 x i8]* %8, i64 0, i64 %71
  %73 = load i8, i8* %72, align 1
  %74 = sext i8 %73 to i32
  %75 = call i32 (i8*, ...) @printf(i8* getelementptr inbounds ([4 x i8], [4 x i8]* @.str.2, i64 0, i64 0), i32 %74)
  br label %182

76:                                               ; preds = %44, %36
  %77 = load i32, i32* %10, align 4
  %78 = sub nsw i32 %77, 2
  %79 = sext i32 %78 to i64
  %80 = getelementptr inbounds [100 x i8], [100 x i8]* %8, i64 0, i64 %79
  %81 = load i8, i8* %80, align 1
  %82 = sext i8 %81 to i32
  %83 = icmp eq i32 %82, 108
  br i1 %83, label %84, label %116

84:                                               ; preds = %76
  %85 = load i32, i32* %10, align 4
  %86 = sub nsw i32 %85, 1
  %87 = sext i32 %86 to i64
  %88 = getelementptr inbounds [100 x i8], [100 x i8]* %8, i64 0, i64 %87
  %89 = load i8, i8* %88, align 1
  %90 = sext i8 %89 to i32
  %91 = icmp eq i32 %90, 121
  br i1 %91, label %92, label %116

92:                                               ; preds = %84
  store i32 0, i32* %12, align 4
  br label %93

93:                                               ; preds = %105, %92
  %94 = load i32, i32* %12, align 4
  %95 = load i32, i32* %10, align 4
  %96 = sub nsw i32 %95, 3
  %97 = icmp slt i32 %94, %96
  br i1 %97, label %98, label %108

98:                                               ; preds = %93
  %99 = load i32, i32* %12, align 4
  %100 = sext i32 %99 to i64
  %101 = getelementptr inbounds [100 x i8], [100 x i8]* %8, i64 0, i64 %100
  %102 = load i8, i8* %101, align 1
  %103 = sext i8 %102 to i32
  %104 = call i32 (i8*, ...) @printf(i8* getelementptr inbounds ([3 x i8], [3 x i8]* @.str.1, i64 0, i64 0), i32 %103)
  br label %105

105:                                              ; preds = %98
  %106 = load i32, i32* %12, align 4
  %107 = add nsw i32 %106, 1
  store i32 %107, i32* %12, align 4
  br label %93

108:                                              ; preds = %93
  %109 = load i32, i32* %10, align 4
  %110 = sub nsw i32 %109, 3
  %111 = sext i32 %110 to i64
  %112 = getelementptr inbounds [100 x i8], [100 x i8]* %8, i64 0, i64 %111
  %113 = load i8, i8* %112, align 1
  %114 = sext i8 %113 to i32
  %115 = call i32 (i8*, ...) @printf(i8* getelementptr inbounds ([4 x i8], [4 x i8]* @.str.2, i64 0, i64 0), i32 %114)
  br label %181

116:                                              ; preds = %84, %76
  %117 = load i32, i32* %10, align 4
  %118 = sub nsw i32 %117, 3
  %119 = sext i32 %118 to i64
  %120 = getelementptr inbounds [100 x i8], [100 x i8]* %8, i64 0, i64 %119
  %121 = load i8, i8* %120, align 1
  %122 = sext i8 %121 to i32
  %123 = icmp eq i32 %122, 105
  br i1 %123, label %124, label %164

124:                                              ; preds = %116
  %125 = load i32, i32* %10, align 4
  %126 = sub nsw i32 %125, 2
  %127 = sext i32 %126 to i64
  %128 = getelementptr inbounds [100 x i8], [100 x i8]* %8, i64 0, i64 %127
  %129 = load i8, i8* %128, align 1
  %130 = sext i8 %129 to i32
  %131 = icmp eq i32 %130, 110
  br i1 %131, label %132, label %164

132:                                              ; preds = %124
  %133 = load i32, i32* %10, align 4
  %134 = sub nsw i32 %133, 1
  %135 = sext i32 %134 to i64
  %136 = getelementptr inbounds [100 x i8], [100 x i8]* %8, i64 0, i64 %135
  %137 = load i8, i8* %136, align 1
  %138 = sext i8 %137 to i32
  %139 = icmp eq i32 %138, 103
  br i1 %139, label %140, label %164

140:                                              ; preds = %132
  store i32 0, i32* %13, align 4
  br label %141

141:                                              ; preds = %153, %140
  %142 = load i32, i32* %13, align 4
  %143 = load i32, i32* %10, align 4
  %144 = sub nsw i32 %143, 4
  %145 = icmp slt i32 %142, %144
  br i1 %145, label %146, label %156

146:                                              ; preds = %141
  %147 = load i32, i32* %13, align 4
  %148 = sext i32 %147 to i64
  %149 = getelementptr inbounds [100 x i8], [100 x i8]* %8, i64 0, i64 %148
  %150 = load i8, i8* %149, align 1
  %151 = sext i8 %150 to i32
  %152 = call i32 (i8*, ...) @printf(i8* getelementptr inbounds ([3 x i8], [3 x i8]* @.str.1, i64 0, i64 0), i32 %151)
  br label %153

153:                                              ; preds = %146
  %154 = load i32, i32* %13, align 4
  %155 = add nsw i32 %154, 1
  store i32 %155, i32* %13, align 4
  br label %141

156:                                              ; preds = %141
  %157 = load i32, i32* %10, align 4
  %158 = sub nsw i32 %157, 4
  %159 = sext i32 %158 to i64
  %160 = getelementptr inbounds [100 x i8], [100 x i8]* %8, i64 0, i64 %159
  %161 = load i8, i8* %160, align 1
  %162 = sext i8 %161 to i32
  %163 = call i32 (i8*, ...) @printf(i8* getelementptr inbounds ([4 x i8], [4 x i8]* @.str.2, i64 0, i64 0), i32 %162)
  br label %180

164:                                              ; preds = %132, %124, %116
  store i32 0, i32* %14, align 4
  br label %165

165:                                              ; preds = %176, %164
  %166 = load i32, i32* %14, align 4
  %167 = load i32, i32* %10, align 4
  %168 = icmp slt i32 %166, %167
  br i1 %168, label %169, label %179

169:                                              ; preds = %165
  %170 = load i32, i32* %14, align 4
  %171 = sext i32 %170 to i64
  %172 = getelementptr inbounds [100 x i8], [100 x i8]* %8, i64 0, i64 %171
  %173 = load i8, i8* %172, align 1
  %174 = sext i8 %173 to i32
  %175 = call i32 (i8*, ...) @printf(i8* getelementptr inbounds ([3 x i8], [3 x i8]* @.str.1, i64 0, i64 0), i32 %174)
  br label %176

176:                                              ; preds = %169
  %177 = load i32, i32* %14, align 4
  %178 = add nsw i32 %177, 1
  store i32 %178, i32* %14, align 4
  br label %165

179:                                              ; preds = %165
  br label %180

180:                                              ; preds = %179, %156
  br label %181

181:                                              ; preds = %180, %108
  br label %182

182:                                              ; preds = %181, %68
  br label %183

183:                                              ; preds = %182
  %184 = load i32, i32* %7, align 4
  %185 = add nsw i32 %184, 1
  store i32 %185, i32* %7, align 4
  br label %16

186:                                              ; preds = %16
  ret i32 0
}

declare dso_local i32 @__isoc99_scanf(i8*, ...) #1

declare dso_local i32 @gets(...) #1

declare dso_local i32 @printf(i8*, ...) #1


!llvm.module.flags = !{!0}
!llvm.ident = !{!1}

!0 = !{i32 1, !"wchar_size", i32 4}
!1 = !{!"clang version 10.0.0-4ubuntu1 "}
